(lp0
(lp1
S'water.png'
p2
ag2
ag2
ag2
ag2
ag2
ag2
ag2
ag2
ag2
ag2
ag2
ag2
ag2
ag2
ag2
ag2
ag2
ag2
ag2
ag2
ag2
ag2
ag2
ag2
aa(lp3
g2
ag2
aS'water.png'
p4
ag2
ag2
ag2
ag2
ag2
ag2
ag2
ag2
ag2
ag2
ag2
ag2
ag2
ag2
ag2
ag2
ag2
ag2
ag2
ag2
ag2
ag2
aa(lp5
g2
ag2
ag2
ag2
ag2
ag2
ag2
ag2
ag2
ag2
ag2
aS'dirt.png'
p6
ag2
ag2
ag6
ag2
ag2
ag2
ag2
ag2
ag2
ag2
ag2
ag2
ag2
aa(lp7
g2
ag2
ag2
ag2
ag2
ag2
ag2
ag2
ag2
ag2
aS'water.png'
p8
ag2
ag2
ag2
ag8
ag8
ag2
ag2
ag2
ag2
ag2
ag2
ag2
ag2
ag2
aa(lp9
g2
ag2
ag2
ag2
ag2
ag2
ag2
ag2
ag2
ag2
ag2
ag2
ag2
ag2
ag2
ag2
ag2
ag2
ag2
ag2
ag2
ag2
ag2
ag2
ag2
aa(lp10
g2
ag2
ag2
ag2
ag2
ag2
ag2
ag2
ag2
ag2
ag6
ag8
ag8
ag8
ag8
ag6
ag2
ag2
ag2
ag2
ag2
ag2
ag2
ag2
ag2
aa(lp11
g2
ag2
ag2
ag2
ag2
ag2
ag2
ag2
ag2
ag2
ag2
ag6
ag6
ag6
ag6
ag2
ag2
ag2
ag2
ag2
ag2
ag2
ag2
ag2
ag2
aa(lp12
g2
ag2
ag2
ag2
ag2
ag2
ag2
ag2
ag2
ag2
ag2
ag2
ag2
ag2
ag2
ag2
ag2
ag2
ag2
ag2
ag2
ag2
ag2
ag2
ag2
aa(lp13
g2
ag2
ag2
ag2
ag2
ag2
ag2
ag2
ag2
ag2
ag2
ag2
ag2
ag2
ag2
ag2
ag2
ag2
ag2
ag2
ag2
ag2
ag2
ag2
ag2
aa(lp14
g2
ag2
ag2
ag2
ag2
ag2
ag2
ag2
ag2
ag2
ag2
ag2
ag2
ag2
ag2
ag2
ag2
ag2
ag2
ag2
ag2
ag2
ag2
ag2
ag2
aa(lp15
g2
ag2
ag2
ag2
ag2
ag2
ag2
ag2
ag2
ag2
ag2
ag2
ag2
ag2
ag2
ag2
ag2
ag2
ag2
ag2
ag2
ag2
ag2
ag2
ag2
aa(lp16
g2
ag2
ag2
ag2
ag2
ag2
ag2
ag2
ag2
ag2
ag2
ag2
ag2
ag2
ag2
ag2
ag2
ag2
ag2
ag2
ag2
ag2
ag2
ag2
ag2
aa(lp17
g2
ag2
ag2
ag2
ag2
ag2
ag2
ag2
ag2
ag2
ag2
ag2
ag2
ag2
ag2
ag2
ag2
ag2
ag2
ag2
ag2
ag2
ag2
ag2
ag2
aa(lp18
g2
ag2
ag2
ag2
ag2
ag2
ag2
ag2
ag2
ag2
ag2
ag2
ag2
ag2
ag2
ag2
ag2
ag2
ag2
ag2
ag2
ag2
ag2
ag2
ag2
aa(lp19
g2
ag2
ag2
ag2
ag2
ag2
ag2
ag2
ag2
ag2
ag2
ag2
ag2
ag2
ag2
ag2
ag2
ag2
ag2
ag2
ag2
ag2
ag2
ag2
ag2
aa.